; ModuleID = 'bench/libcxx/original/expected.ll'
source_filename = "bench/libcxx/original/expected.ll"
target datalayout = "e-m:e-p270:32:32-p271:32:32-p272:64:64-i64:64-i128:128-f80:128-n8:16:32:64-S128"
target triple = "x86_64-pc-linux-gnu"

$_ZNSt3__119bad_expected_accessIvED0Ev = comdat any

@.str = private unnamed_addr constant [28 x i8] c"bad access to std::expected\00", align 1
@_ZTVNSt3__119bad_expected_accessIvEE = dso_local unnamed_addr constant { [5 x ptr] } { [5 x ptr] [ptr null, ptr @_ZTINSt3__119bad_expected_accessIvEE, ptr @_ZNSt9exceptionD2Ev, ptr @_ZNSt3__119bad_expected_accessIvED0Ev, ptr @_ZNKSt3__119bad_expected_accessIvE4whatEv] }, align 8
@_ZTINSt3__119bad_expected_accessIvEE = dso_local constant { ptr, ptr, ptr } { ptr getelementptr inbounds (ptr, ptr @_ZTVN10__cxxabiv120__si_class_type_infoE, i64 2), ptr @_ZTSNSt3__119bad_expected_accessIvEE, ptr @_ZTISt9exception }, align 8
@_ZTVN10__cxxabiv120__si_class_type_infoE = external global [0 x ptr]
@_ZTSNSt3__119bad_expected_accessIvEE = dso_local constant [33 x i8] c"NSt3__119bad_expected_accessIvEE\00", align 1
@_ZTISt9exception = external constant ptr

; Function Attrs: mustprogress nofree norecurse nosync nounwind willreturn memory(none) uwtable
define dso_local noundef nonnull ptr @_ZNKSt3__119bad_expected_accessIvE4whatEv(ptr nonnull readnone align 8 captures(none) %0) unnamed_addr #0 align 2 {
  ret ptr @.str
}

; Function Attrs: nounwind
declare void @_ZNSt9exceptionD2Ev(ptr noundef nonnull align 8 dereferenceable(8)) unnamed_addr #1

; Function Attrs: mustprogress nounwind uwtable
define linkonce_odr hidden void @_ZNSt3__119bad_expected_accessIvED0Ev(ptr noundef nonnull align 8 dereferenceable(8) %0) unnamed_addr #2 comdat align 2 {
  tail call void @_ZNSt9exceptionD2Ev(ptr noundef nonnull align 8 dereferenceable(8) %0) #4
  tail call void @_ZdlPvm(ptr noundef nonnull %0, i64 noundef 8) #5
  ret void
}

; Function Attrs: nobuiltin nounwind
declare void @_ZdlPvm(ptr noundef, i64 noundef) local_unnamed_addr #3


!llvm.linker.options = !{}
!llvm.module.flags = !{!0, !1, !2, !3}

!0 = !{i32 1, !"wchar_size", i32 4}
!1 = !{i32 8, !"PIC Level", i32 2}
!2 = !{i32 7, !"PIE Level", i32 2}
!3 = !{i32 7, !"uwtable", i32 2}
